target datalayout = "e-m:e-p270:32:32-p271:32:32-p272:64:64-i64:64-i128:128-f80:128-n8:16:32:64-S128"
target triple = "x86_64-pc-linux-gnu"

%struct.Gia_Man_t_ = type { ptr, ptr, i32, i32, i32, i32, ptr, ptr, i32, i32, i32, ptr, ptr, %struct.Vec_Int_t_, %struct.Vec_Int_t_, i32, i32, i32, %struct.Vec_Int_t_, ptr, ptr, ptr, i32, i32, i32, i32, ptr, ptr, ptr, ptr, ptr, i32, i32, ptr, i32, ptr, ptr, ptr, ptr, ptr, ptr, ptr, ptr, ptr, ptr, ptr, ptr, ptr, ptr, ptr, ptr, ptr, ptr, %struct.Vec_Int_t_, %struct.Vec_Int_t_, ptr, ptr, ptr, ptr, ptr, ptr, ptr, ptr, ptr, ptr, ptr, ptr, ptr, ptr, ptr, ptr, ptr, ptr, ptr, ptr, ptr, i32, float, float, ptr, ptr, i32, ptr, ptr, ptr, ptr, ptr, ptr, ptr, ptr, ptr, ptr, ptr, ptr, ptr, ptr, ptr, i64, i64, ptr, ptr, i32, i32, i32, i32, i32, i32, i32, i32, i32, i32, i32, i32, ptr, ptr, ptr, ptr, ptr, ptr, ptr, ptr, i32, i32, i32, ptr, i32, i32, ptr, ptr, ptr, ptr, ptr, ptr, i32, i32, ptr, %struct.Vec_Int_t_, %struct.Vec_Int_t_, %struct.Vec_Int_t_, ptr, ptr, ptr, i32, i32, i32, i32, ptr, ptr, ptr, ptr, ptr }
%struct.Vec_Int_t_ = type { i32, i32, ptr }
%struct.Gia_Obj_t_ = type <{ i64, i32 }>

; Function Attrs: inlinehint nounwind uwtable
define internal ptr @Gia_NotCond(ptr noundef %0, i32 noundef %1) #1 {
  %3 = alloca ptr, align 8
  %4 = alloca i32, align 4
  store ptr %0, ptr %3, align 8, !tbaa !38
  store i32 %1, ptr %4, align 4, !tbaa !33
  %5 = load ptr, ptr %3, align 8, !tbaa !38
  %6 = ptrtoint ptr %5 to i64
  %7 = load i32, ptr %4, align 4, !tbaa !33
  %8 = sext i32 %7 to i64
  %9 = xor i64 %6, %8
  %10 = inttoptr i64 %9 to ptr
  ret ptr %10
}

; Function Attrs: inlinehint nounwind uwtable
define internal i32 @Gia_ObjFaninC0(ptr noundef %0) #1 {
  %2 = alloca ptr, align 8
  store ptr %0, ptr %2, align 8, !tbaa !38
  %3 = load ptr, ptr %2, align 8, !tbaa !38
  %4 = load i64, ptr %3, align 4
  %5 = lshr i64 %4, 29
  %6 = and i64 %5, 1
  %7 = trunc i64 %6 to i32
  ret i32 %7
}

; Function Attrs: inlinehint nounwind uwtable
define internal ptr @Gia_ObjFanin0(ptr noundef %0) #1 {
  %2 = alloca ptr, align 8
  store ptr %0, ptr %2, align 8, !tbaa !38
  %3 = load ptr, ptr %2, align 8, !tbaa !38
  %4 = load ptr, ptr %2, align 8, !tbaa !38
  %5 = load i64, ptr %4, align 4
  %6 = and i64 %5, 536870911
  %7 = trunc i64 %6 to i32
  %8 = sext i32 %7 to i64
  %9 = sub i64 0, %8
  %10 = getelementptr inbounds %struct.Gia_Obj_t_, ptr %3, i64 %9
  ret ptr %10
}

; Function Attrs: inlinehint nounwind uwtable
define internal i32 @Vec_IntEntry(ptr noundef %0, i32 noundef %1) #1 {
  %3 = alloca ptr, align 8
  %4 = alloca i32, align 4
  store ptr %0, ptr %3, align 8, !tbaa !31
  store i32 %1, ptr %4, align 4, !tbaa !33
  %5 = load ptr, ptr %3, align 8, !tbaa !31
  %6 = getelementptr inbounds nuw %struct.Vec_Int_t_, ptr %5, i32 0, i32 2
  %7 = load ptr, ptr %6, align 8, !tbaa !32
  %8 = load i32, ptr %4, align 4, !tbaa !33
  %9 = sext i32 %8 to i64
  %10 = getelementptr inbounds i32, ptr %7, i64 %9
  %11 = load i32, ptr %10, align 4, !tbaa !33
  ret i32 %11
}

; Function Attrs: inlinehint nounwind uwtable
define internal i32 @Vec_IntSize(ptr noundef %0) #1 {
  %2 = alloca ptr, align 8
  store ptr %0, ptr %2, align 8, !tbaa !31
  %3 = load ptr, ptr %2, align 8, !tbaa !31
  %4 = getelementptr inbounds nuw %struct.Vec_Int_t_, ptr %3, i32 0, i32 1
  %5 = load i32, ptr %4, align 4, !tbaa !34
  ret i32 %5
}

; Function Attrs: inlinehint nounwind uwtable
define internal i32 @Abc_Lit2Var(i32 noundef %0) #1 {
  %2 = alloca i32, align 4
  store i32 %0, ptr %2, align 4, !tbaa !33
  %3 = load i32, ptr %2, align 4, !tbaa !33
  %4 = ashr i32 %3, 1
  ret i32 %4
}

; Function Attrs: inlinehint nounwind uwtable
define internal ptr @Gia_ManObj(ptr noundef %0, i32 noundef %1) #1 {
  %3 = alloca ptr, align 8
  %4 = alloca i32, align 4
  store ptr %0, ptr %3, align 8, !tbaa !3
  store i32 %1, ptr %4, align 4, !tbaa !33
  %5 = load ptr, ptr %3, align 8, !tbaa !3
  %6 = getelementptr inbounds nuw %struct.Gia_Man_t_, ptr %5, i32 0, i32 6
  %7 = load ptr, ptr %6, align 8, !tbaa !43
  %8 = load i32, ptr %4, align 4, !tbaa !33
  %9 = sext i32 %8 to i64
  %10 = getelementptr inbounds %struct.Gia_Obj_t_, ptr %7, i64 %9
  ret ptr %10
}

; Function Attrs: inlinehint nounwind uwtable
define internal i32 @Gia_ObjId(ptr noundef %0, ptr noundef %1) #1 {
  %3 = alloca ptr, align 8
  %4 = alloca ptr, align 8
  store ptr %0, ptr %3, align 8, !tbaa !3
  store ptr %1, ptr %4, align 8, !tbaa !38
  %5 = load ptr, ptr %4, align 8, !tbaa !38
  %6 = load ptr, ptr %3, align 8, !tbaa !3
  %7 = getelementptr inbounds nuw %struct.Gia_Man_t_, ptr %6, i32 0, i32 6
  %8 = load ptr, ptr %7, align 8, !tbaa !43
  %9 = ptrtoint ptr %5 to i64
  %10 = ptrtoint ptr %8 to i64
  %11 = sub i64 %9, %10
  %12 = sdiv exact i64 %11, 12
  %13 = trunc i64 %12 to i32
  ret i32 %13
}

; Function Attrs: inlinehint nounwind uwtable
define internal ptr @Gia_ObjChild0(ptr noundef %0) #1 {
  %2 = alloca ptr, align 8
  store ptr %0, ptr %2, align 8, !tbaa !38
  %3 = load ptr, ptr %2, align 8, !tbaa !38
  %4 = call ptr @Gia_ObjFanin0(ptr noundef %3)
  %5 = load ptr, ptr %2, align 8, !tbaa !38
  %6 = call i32 @Gia_ObjFaninC0(ptr noundef %5)
  %7 = call ptr @Gia_NotCond(ptr noundef %4, i32 noundef %6)
  ret ptr %7
}

; Function Attrs: inlinehint nounwind uwtable
define internal ptr @Gia_ManPo(ptr noundef %0, i32 noundef %1) #1 {
  %3 = alloca ptr, align 8
  %4 = alloca i32, align 4
  store ptr %0, ptr %3, align 8, !tbaa !3
  store i32 %1, ptr %4, align 4, !tbaa !33
  %5 = load ptr, ptr %3, align 8, !tbaa !3
  %6 = load i32, ptr %4, align 4, !tbaa !33
  %7 = call ptr @Gia_ManCo(ptr noundef %5, i32 noundef %6)
  ret ptr %7
}

; Function Attrs: inlinehint nounwind uwtable
define internal ptr @Gia_ManCo(ptr noundef %0, i32 noundef %1) #1 {
  %3 = alloca ptr, align 8
  %4 = alloca i32, align 4
  store ptr %0, ptr %3, align 8, !tbaa !3
  store i32 %1, ptr %4, align 4, !tbaa !33
  %5 = load ptr, ptr %3, align 8, !tbaa !3
  %6 = load ptr, ptr %3, align 8, !tbaa !3
  %7 = getelementptr inbounds nuw %struct.Gia_Man_t_, ptr %6, i32 0, i32 12
  %8 = load ptr, ptr %7, align 8, !tbaa !51
  %9 = load i32, ptr %4, align 4, !tbaa !33
  %10 = call i32 @Vec_IntEntry(ptr noundef %8, i32 noundef %9)
  %11 = call ptr @Gia_ManObj(ptr noundef %5, i32 noundef %10)
  ret ptr %11
}

; Function Attrs: inlinehint nounwind uwtable
define internal i32 @Gia_ManPoNum(ptr noundef %0) #1 {
  %2 = alloca ptr, align 8
  store ptr %0, ptr %2, align 8, !tbaa !3
  %3 = load ptr, ptr %2, align 8, !tbaa !3
  %4 = getelementptr inbounds nuw %struct.Gia_Man_t_, ptr %3, i32 0, i32 12
  %5 = load ptr, ptr %4, align 8, !tbaa !51
  %6 = call i32 @Vec_IntSize(ptr noundef %5)
  %7 = load ptr, ptr %2, align 8, !tbaa !3
  %8 = getelementptr inbounds nuw %struct.Gia_Man_t_, ptr %7, i32 0, i32 2
  %9 = load i32, ptr %8, align 8, !tbaa !100
  %10 = sub nsw i32 %6, %9
  ret i32 %10
}

; Function Attrs: nounwind uwtable
define void @Gia_ManEquivUpdatePointers(ptr noundef %0, ptr noundef %1) #0 {
  %3 = alloca ptr, align 8
  %4 = alloca ptr, align 8
  %5 = alloca ptr, align 8
  %6 = alloca ptr, align 8
  %7 = alloca i32, align 4
  store ptr %0, ptr %3, align 8, !tbaa !3
  store ptr %1, ptr %4, align 8, !tbaa !3
  call void @llvm.lifetime.start.p0(i64 8, ptr %5) #12
  call void @llvm.lifetime.start.p0(i64 8, ptr %6) #12
  call void @llvm.lifetime.start.p0(i64 4, ptr %7) #12
  store i32 0, ptr %7, align 4, !tbaa !33
  br label %8

8:                                                ; preds = %45, %2
  %9 = load i32, ptr %7, align 4, !tbaa !33
  %10 = load ptr, ptr %3, align 8, !tbaa !3
  %11 = getelementptr inbounds nuw %struct.Gia_Man_t_, ptr %10, i32 0, i32 4
  %12 = load i32, ptr %11, align 8, !tbaa !37
  %13 = icmp slt i32 %9, %12
  br i1 %13, label %14, label %19

14:                                               ; preds = %8
  %15 = load ptr, ptr %3, align 8, !tbaa !3
  %16 = load i32, ptr %7, align 4, !tbaa !33
  %17 = call ptr @Gia_ManObj(ptr noundef %15, i32 noundef %16)
  store ptr %17, ptr %5, align 8, !tbaa !38
  %18 = icmp ne ptr %17, null
  br label %19

19:                                               ; preds = %14, %8
  %20 = phi i1 [ false, %8 ], [ %18, %14 ]
  br i1 %20, label %21, label %48

21:                                               ; preds = %19
  %22 = load ptr, ptr %5, align 8, !tbaa !38
  %23 = getelementptr inbounds nuw %struct.Gia_Obj_t_, ptr %22, i32 0, i32 1
  %24 = load i32, ptr %23, align 4, !tbaa !39
  %25 = xor i32 %24, -1
  %26 = icmp ne i32 %25, 0
  br i1 %26, label %28, label %27

27:                                               ; preds = %21
  br label %45

28:                                               ; preds = %21
  %29 = load ptr, ptr %4, align 8, !tbaa !3
  %30 = load ptr, ptr %5, align 8, !tbaa !38
  %31 = getelementptr inbounds nuw %struct.Gia_Obj_t_, ptr %30, i32 0, i32 1
  %32 = load i32, ptr %31, align 4, !tbaa !39
  %33 = call i32 @Abc_Lit2Var(i32 noundef %32)
  %34 = call ptr @Gia_ManObj(ptr noundef %29, i32 noundef %33)
  store ptr %34, ptr %6, align 8, !tbaa !38
  %35 = load ptr, ptr %6, align 8, !tbaa !38
  %36 = load i64, ptr %35, align 4
  %37 = lshr i64 %36, 30
  %38 = and i64 %37, 1
  %39 = trunc i64 %38 to i32
  %40 = icmp ne i32 %39, 0
  br i1 %40, label %41, label %44

41:                                               ; preds = %28
  %42 = load ptr, ptr %5, align 8, !tbaa !38
  %43 = getelementptr inbounds nuw %struct.Gia_Obj_t_, ptr %42, i32 0, i32 1
  store i32 -1, ptr %43, align 4, !tbaa !39
  br label %44

44:                                               ; preds = %41, %28
  br label %45

45:                                               ; preds = %44, %27
  %46 = load i32, ptr %7, align 4, !tbaa !33
  %47 = add nsw i32 %46, 1
  store i32 %47, ptr %7, align 4, !tbaa !33
  br label %8, !llvm.loop !114

48:                                               ; preds = %19
  call void @llvm.lifetime.end.p0(i64 4, ptr %7) #12
  call void @llvm.lifetime.end.p0(i64 8, ptr %6) #12
  call void @llvm.lifetime.end.p0(i64 8, ptr %5) #12
  ret void
}

; Function Attrs: nounwind uwtable
define void @Gia_ManEquivFixOutputPairs(ptr noundef %0) #0 {
  %2 = alloca ptr, align 8
  %3 = alloca ptr, align 8
  %4 = alloca ptr, align 8
  %5 = alloca i32, align 4
  store ptr %0, ptr %2, align 8, !tbaa !3
  call void @llvm.lifetime.start.p0(i64 8, ptr %3) #12
  call void @llvm.lifetime.start.p0(i64 8, ptr %4) #12
  call void @llvm.lifetime.start.p0(i64 4, ptr %5) #12
  store i32 0, ptr %5, align 4, !tbaa !33
  br label %6

6:                                                ; preds = %56, %1
  %7 = load i32, ptr %5, align 4, !tbaa !33
  %8 = load ptr, ptr %2, align 8, !tbaa !3
  %9 = call i32 @Gia_ManPoNum(ptr noundef %8)
  %10 = icmp slt i32 %7, %9
  br i1 %10, label %11, label %16

11:                                               ; preds = %6
  %12 = load ptr, ptr %2, align 8, !tbaa !3
  %13 = load i32, ptr %5, align 4, !tbaa !33
  %14 = call ptr @Gia_ManCo(ptr noundef %12, i32 noundef %13)
  store ptr %14, ptr %3, align 8, !tbaa !38
  %15 = icmp ne ptr %14, null
  br label %16

16:                                               ; preds = %11, %6
  %17 = phi i1 [ false, %6 ], [ %15, %11 ]
  br i1 %17, label %18, label %59

18:                                               ; preds = %16
  %19 = load ptr, ptr %2, align 8, !tbaa !3
  %20 = load i32, ptr %5, align 4, !tbaa !33
  %21 = add nsw i32 %20, 1
  store i32 %21, ptr %5, align 4, !tbaa !33
  %22 = call ptr @Gia_ManPo(ptr noundef %19, i32 noundef %21)
  store ptr %22, ptr %4, align 8, !tbaa !38
  %23 = load ptr, ptr %3, align 8, !tbaa !38
  %24 = call ptr @Gia_ObjChild0(ptr noundef %23)
  %25 = load ptr, ptr %4, align 8, !tbaa !38
  %26 = call ptr @Gia_ObjChild0(ptr noundef %25)
  %27 = icmp ne ptr %24, %26
  br i1 %27, label %28, label %29

28:                                               ; preds = %18
  br label %56

29:                                               ; preds = %18
  %30 = load ptr, ptr %2, align 8, !tbaa !3
  %31 = load ptr, ptr %3, align 8, !tbaa !38
  %32 = call i32 @Gia_ObjId(ptr noundef %30, ptr noundef %31)
  %33 = load ptr, ptr %3, align 8, !tbaa !38
  %34 = zext i32 %32 to i64
  %35 = load i64, ptr %33, align 4
  %36 = and i64 %34, 536870911
  %37 = and i64 %35, -536870912
  %38 = or i64 %37, %36
  store i64 %38, ptr %33, align 4
  %39 = load ptr, ptr %3, align 8, !tbaa !38
  %40 = load i64, ptr %39, align 4
  %41 = and i64 %40, -536870913
  %42 = or i64 %41, 0
  store i64 %42, ptr %39, align 4
  %43 = load ptr, ptr %2, align 8, !tbaa !3
  %44 = load ptr, ptr %4, align 8, !tbaa !38
  %45 = call i32 @Gia_ObjId(ptr noundef %43, ptr noundef %44)
  %46 = load ptr, ptr %4, align 8, !tbaa !38
  %47 = zext i32 %45 to i64
  %48 = load i64, ptr %46, align 4
  %49 = and i64 %47, 536870911
  %50 = and i64 %48, -536870912
  %51 = or i64 %50, %49
  store i64 %51, ptr %46, align 4
  %52 = load ptr, ptr %4, align 8, !tbaa !38
  %53 = load i64, ptr %52, align 4
  %54 = and i64 %53, -536870913
  %55 = or i64 %54, 0
  store i64 %55, ptr %52, align 4
  br label %56

56:                                               ; preds = %29, %28
  %57 = load i32, ptr %5, align 4, !tbaa !33
  %58 = add nsw i32 %57, 1
  store i32 %58, ptr %5, align 4, !tbaa !33
  br label %6, !llvm.loop !113

59:                                               ; preds = %16
  call void @llvm.lifetime.end.p0(i64 4, ptr %5) #12
  call void @llvm.lifetime.end.p0(i64 8, ptr %4) #12
  call void @llvm.lifetime.end.p0(i64 8, ptr %3) #12
  ret void
}

; Function Attrs: nounwind uwtable
define ptr @Gia_ManEquivReduceAndRemap(ptr noundef %0, i32 noundef %1, i32 noundef %2) #0 {
  %4 = alloca ptr, align 8
  %5 = alloca ptr, align 8
  %6 = alloca i32, align 4
  %7 = alloca i32, align 4
  %8 = alloca ptr, align 8
  %9 = alloca ptr, align 8
  %10 = alloca i32, align 4
  store ptr %0, ptr %5, align 8, !tbaa !3
  store i32 %1, ptr %6, align 4, !tbaa !33
  store i32 %2, ptr %7, align 4, !tbaa !33
  call void @llvm.lifetime.start.p0(i64 8, ptr %8) #12
  call void @llvm.lifetime.start.p0(i64 8, ptr %9) #12
  %11 = load ptr, ptr %5, align 8, !tbaa !3
  %12 = call ptr @Gia_ManEquivReduce(ptr noundef %11, i32 noundef 0, i32 noundef 0, i32 noundef 0, i32 noundef 0)
  store ptr %12, ptr %8, align 8, !tbaa !3
  %13 = load ptr, ptr %8, align 8, !tbaa !3
  %14 = icmp eq ptr %13, null
  br i1 %14, label %15, label %16

15:                                               ; preds = %3
  store ptr null, ptr %4, align 8
  store i32 1, ptr %10, align 4
  br label %49

16:                                               ; preds = %3
  %17 = load ptr, ptr %5, align 8, !tbaa !3
  %18 = load ptr, ptr %8, align 8, !tbaa !3
  call void @Gia_ManOrigIdsRemap(ptr noundef %17, ptr noundef %18)
  %19 = load i32, ptr %7, align 4, !tbaa !33
  %20 = icmp ne i32 %19, 0
  br i1 %20, label %21, label %23

21:                                               ; preds = %16
  %22 = load ptr, ptr %8, align 8, !tbaa !3
  call void @Gia_ManEquivFixOutputPairs(ptr noundef %22)
  br label %23

23:                                               ; preds = %21, %16
  %24 = load i32, ptr %6, align 4, !tbaa !33
  %25 = icmp ne i32 %24, 0
  br i1 %25, label %26, label %29

26:                                               ; preds = %23
  %27 = load ptr, ptr %8, align 8, !tbaa !3
  %28 = call i32 @Gia_ManSeqMarkUsed(ptr noundef %27)
  br label %32

29:                                               ; preds = %23
  %30 = load ptr, ptr %8, align 8, !tbaa !3
  %31 = call i32 @Gia_ManCombMarkUsed(ptr noundef %30)
  br label %32

32:                                               ; preds = %29, %26
  %33 = load ptr, ptr %5, align 8, !tbaa !3
  %34 = load ptr, ptr %8, align 8, !tbaa !3
  call void @Gia_ManEquivUpdatePointers(ptr noundef %33, ptr noundef %34)
  %35 = load ptr, ptr %8, align 8, !tbaa !3
  %36 = call ptr @Gia_ManDupMarked(ptr noundef %35)
  store ptr %36, ptr %9, align 8, !tbaa !3
  %37 = load ptr, ptr %8, align 8, !tbaa !3
  %38 = load ptr, ptr %9, align 8, !tbaa !3
  call void @Gia_ManOrigIdsRemap(ptr noundef %37, ptr noundef %38)
  %39 = load ptr, ptr %5, align 8, !tbaa !3
  %40 = load ptr, ptr %8, align 8, !tbaa !3
  %41 = load ptr, ptr %9, align 8, !tbaa !3
  call void @Gia_ManEquivDeriveReprs(ptr noundef %39, ptr noundef %40, ptr noundef %41)
  %42 = load ptr, ptr %8, align 8, !tbaa !3
  call void @Gia_ManStop(ptr noundef %42)
  %43 = load ptr, ptr %9, align 8, !tbaa !3
  store ptr %43, ptr %8, align 8, !tbaa !3
  %44 = call ptr @Gia_ManEquivRemapDfs(ptr noundef %43)
  store ptr %44, ptr %9, align 8, !tbaa !3
  %45 = load ptr, ptr %8, align 8, !tbaa !3
  %46 = load ptr, ptr %9, align 8, !tbaa !3
  call void @Gia_ManOrigIdsRemap(ptr noundef %45, ptr noundef %46)
  %47 = load ptr, ptr %8, align 8, !tbaa !3
  call void @Gia_ManStop(ptr noundef %47)
  %48 = load ptr, ptr %9, align 8, !tbaa !3
  store ptr %48, ptr %4, align 8
  store i32 1, ptr %10, align 4
  br label %49

49:                                               ; preds = %32, %15
  call void @llvm.lifetime.end.p0(i64 8, ptr %9) #12
  call void @llvm.lifetime.end.p0(i64 8, ptr %8) #12
  %50 = load ptr, ptr %4, align 8
  ret ptr %50
}