; Function Attrs: nounwind uwtable
define noundef ptr @Gia_ManEquivReduceAndRemap(ptr noundef %0, i32 noundef %1, i32 noundef %2) local_unnamed_addr #0 {
  %4 = tail call ptr @Gia_ManEquivReduce(ptr noundef %0, i32 noundef 0, i32 noundef 0, i32 noundef 0, i32 noundef 0)
  %5 = icmp eq ptr %4, null
  br i1 %5, label %80, label %6

6:                                                ; preds = %3
  tail call void @Gia_ManOrigIdsRemap(ptr noundef %0, ptr noundef nonnull %4)
  %.not = icmp eq i32 %2, 0
  br i1 %.not, label %Gia_ManEquivFixOutputPairs.exit, label %7

7:                                                ; preds = %6
  %8 = getelementptr i8, ptr %4, i64 32
  %9 = getelementptr i8, ptr %4, i64 16
  %10 = getelementptr i8, ptr %4, i64 72
  %.val2125.i = load i32, ptr %9, align 8, !tbaa !90
  %.val2226.i = load ptr, ptr %10, align 8, !tbaa !47
  %11 = getelementptr i8, ptr %.val2226.i, i64 4
  %.val22.val27.i = load i32, ptr %11, align 4, !tbaa !31
  %12 = icmp sgt i32 %.val22.val27.i, %.val2125.i
  br i1 %12, label %.lr.ph.i, label %Gia_ManEquivFixOutputPairs.exit

.lr.ph.i:                                         ; preds = %7, %53
  %.val2234.i = phi ptr [ %.val22.i, %53 ], [ %.val2226.i, %7 ]
  %.val2132.i = phi i32 [ %.val21.i, %53 ], [ %.val2125.i, %7 ]
  %indvars.iv.i = phi i64 [ %indvars.iv.next.i, %53 ], [ 0, %7 ]
  %.val19.i = load ptr, ptr %8, align 8, !tbaa !36
  %13 = getelementptr i8, ptr %.val2234.i, i64 8
  %.val20.val.i = load ptr, ptr %13, align 8, !tbaa !8
  %14 = getelementptr inbounds nuw i32, ptr %.val20.val.i, i64 %indvars.iv.i
  %15 = load i32, ptr %14, align 4, !tbaa !32
  %16 = sext i32 %15 to i64
  %17 = getelementptr inbounds %struct.Gia_Obj_t_, ptr %.val19.i, i64 %16
  %.not.i = icmp eq ptr %.val19.i, null
  br i1 %.not.i, label %Gia_ManEquivFixOutputPairs.exit, label %18

18:                                               ; preds = %.lr.ph.i
  %19 = or disjoint i64 %indvars.iv.i, 1
  %20 = getelementptr inbounds nuw i32, ptr %.val20.val.i, i64 %19
  %21 = load i32, ptr %20, align 4, !tbaa !32
  %22 = sext i32 %21 to i64
  %23 = getelementptr inbounds %struct.Gia_Obj_t_, ptr %.val19.i, i64 %22
  %24 = load i64, ptr %17, align 4
  %25 = and i64 %24, 536870911
  %26 = sub nsw i64 0, %25
  %27 = getelementptr inbounds %struct.Gia_Obj_t_, ptr %17, i64 %26
  %28 = lshr i64 %24, 29
  %29 = and i64 %28, 1
  %30 = ptrtoint ptr %27 to i64
  %31 = xor i64 %29, %30
  %32 = load i64, ptr %23, align 4
  %33 = and i64 %32, 536870911
  %34 = sub nsw i64 0, %33
  %35 = getelementptr inbounds %struct.Gia_Obj_t_, ptr %23, i64 %34
  %36 = lshr i64 %32, 29
  %37 = and i64 %36, 1
  %38 = ptrtoint ptr %35 to i64
  %39 = xor i64 %37, %38
  %.not17.i = icmp eq i64 %31, %39
  br i1 %.not17.i, label %40, label %53

40:                                               ; preds = %18
  %41 = and i32 %15, 536870911
  %42 = zext nneg i32 %41 to i64
  %43 = and i64 %24, -1073741824
  %44 = or disjoint i64 %43, %42
  store i64 %44, ptr %17, align 4
  %.val.i = load ptr, ptr %8, align 8, !tbaa !36
  %45 = ptrtoint ptr %23 to i64
  %46 = ptrtoint ptr %.val.i to i64
  %47 = sub i64 %45, %46
  %48 = sdiv exact i64 %47, 12
  %49 = load i64, ptr %23, align 4
  %50 = and i64 %48, 536870911
  %51 = and i64 %49, -1073741824
  %52 = or disjoint i64 %50, %51
  store i64 %52, ptr %23, align 4
  %.val21.pre.i = load i32, ptr %9, align 8, !tbaa !90
  %.val22.pre.i = load ptr, ptr %10, align 8, !tbaa !47
  br label %53

53:                                               ; preds = %40, %18
  %.val22.i = phi ptr [ %.val2234.i, %18 ], [ %.val22.pre.i, %40 ]
  %.val21.i = phi i32 [ %.val2132.i, %18 ], [ %.val21.pre.i, %40 ]
  %indvars.iv.next.i = add nuw nsw i64 %indvars.iv.i, 2
  %54 = getelementptr i8, ptr %.val22.i, i64 4
  %.val22.val.i = load i32, ptr %54, align 4, !tbaa !31
  %55 = sub nsw i32 %.val22.val.i, %.val21.i
  %56 = trunc nuw i64 %indvars.iv.next.i to i32
  %57 = icmp sgt i32 %55, %56
  br i1 %57, label %.lr.ph.i, label %Gia_ManEquivFixOutputPairs.exit, !llvm.loop !107

Gia_ManEquivFixOutputPairs.exit:                  ; preds = %53, %.lr.ph.i, %7, %6
  %.not24 = icmp eq i32 %1, 0
  br i1 %.not24, label %60, label %58

58:                                               ; preds = %Gia_ManEquivFixOutputPairs.exit
  %59 = tail call i32 @Gia_ManSeqMarkUsed(ptr noundef nonnull %4) #31
  br label %62

60:                                               ; preds = %Gia_ManEquivFixOutputPairs.exit
  %61 = tail call i32 @Gia_ManCombMarkUsed(ptr noundef nonnull %4) #31
  br label %62

62:                                               ; preds = %60, %58
  %63 = getelementptr inbounds nuw i8, ptr %0, i64 24
  %64 = load i32, ptr %63, align 8, !tbaa !12
  %65 = icmp sgt i32 %64, 0
  br i1 %65, label %.lr.ph.i25, label %Gia_ManEquivUpdatePointers.exit

.lr.ph.i25:                                       ; preds = %62
  %66 = getelementptr i8, ptr %0, i64 32
  %.val12.i = load ptr, ptr %66, align 8, !tbaa !36
  %.not.i26 = icmp eq ptr %.val12.i, null
  %67 = getelementptr i8, ptr %4, i64 32
  br i1 %.not.i26, label %Gia_ManEquivUpdatePointers.exit, label %.lr.ph.split.preheader.i

.lr.ph.split.preheader.i:                         ; preds = %.lr.ph.i25
  %wide.trip.count.i = zext nneg i32 %64 to i64
  br label %.lr.ph.split.i

.lr.ph.split.i:                                   ; preds = %77, %.lr.ph.split.preheader.i
  %indvars.iv.i27 = phi i64 [ 0, %.lr.ph.split.preheader.i ], [ %indvars.iv.next.i29, %77 ]
  %68 = getelementptr inbounds nuw %struct.Gia_Obj_t_, ptr %.val12.i, i64 %indvars.iv.i27, i32 1
  %69 = load i32, ptr %68, align 4, !tbaa !37
  %.not10.i = icmp eq i32 %69, -1
  br i1 %.not10.i, label %77, label %70

70:                                               ; preds = %.lr.ph.split.i
  %71 = ashr i32 %69, 1
  %.val.i28 = load ptr, ptr %67, align 8, !tbaa !36
  %72 = sext i32 %71 to i64
  %73 = getelementptr inbounds %struct.Gia_Obj_t_, ptr %.val.i28, i64 %72
  %74 = load i64, ptr %73, align 4
  %75 = and i64 %74, 1073741824
  %.not11.i = icmp eq i64 %75, 0
  br i1 %.not11.i, label %77, label %76

76:                                               ; preds = %70
  store i32 -1, ptr %68, align 4, !tbaa !37
  br label %77

77:                                               ; preds = %76, %70, %.lr.ph.split.i
  %indvars.iv.next.i29 = add nuw nsw i64 %indvars.iv.i27, 1
  %exitcond.not.i = icmp eq i64 %indvars.iv.next.i29, %wide.trip.count.i
  br i1 %exitcond.not.i, label %Gia_ManEquivUpdatePointers.exit, label %.lr.ph.split.i, !llvm.loop !108

Gia_ManEquivUpdatePointers.exit:                  ; preds = %77, %62, %.lr.ph.i25
  %78 = tail call ptr @Gia_ManDupMarked(ptr noundef nonnull %4) #31
  tail call void @Gia_ManOrigIdsRemap(ptr noundef nonnull %4, ptr noundef %78)
  tail call void @Gia_ManEquivDeriveReprs(ptr noundef %0, ptr noundef nonnull %4, ptr noundef %78)
  tail call void @Gia_ManStop(ptr noundef nonnull %4) #31
  %79 = tail call ptr @Gia_ManEquivRemapDfs(ptr noundef %78)
  tail call void @Gia_ManOrigIdsRemap(ptr noundef %78, ptr noundef %79)
  tail call void @Gia_ManStop(ptr noundef %78) #31
  br label %80

80:                                               ; preds = %3, %Gia_ManEquivUpdatePointers.exit
  %.0 = phi ptr [ %79, %Gia_ManEquivUpdatePointers.exit ], [ null, %3 ]
  ret ptr %.0
}